
 WEBVIEW

 Start         Length     Name                   Class
 0001:00000000 000001540H _TEXT                  CODE 32-bit
 0002:00000000 000000EEDH _DATA                  DATA 32-bit
 0002:00000EF0 000002000H STACK                  STACK 32-bit
 0002:00002EF0 00017768EH _BSS                   BSS 32-bit

 Origin   Group
 0000:0   FLAT
 0002:0   DGROUP

  Address         Publics by Name

 0000:00000000  Imp  CONNECT              (so32dll.3)
 0000:00000000  Imp  DEVCLOSEDC           (PMGPI.604)
 0000:00000000  Imp  DEVOPENDC            (PMGPI.610)
 0000:00000000  Imp  DOSBEEP              (DOSCALLS.286)
 0000:00000000  Imp  DOSCLOSE             (DOSCALLS.257)
 0000:00000000  Imp  DOSCREATETHREAD      (DOSCALLS.311)
 0000:00000000  Imp  DOSEXIT              (DOSCALLS.234)
 0000:00000000  Imp  DOSFREEMEM           (DOSCALLS.304)
 0000:00000000  Imp  DOSOPEN              (DOSCALLS.273)
 0000:00000000  Imp  DOSSETPRIORITY       (DOSCALLS.236)
 0000:00000000  Imp  DOSSLEEP             (DOSCALLS.229)
 0000:00000000  Imp  DOSSUSPENDTHREAD     (DOSCALLS.238)
 0000:00000000  Imp  DOSWRITE             (DOSCALLS.282)
 0000:00000000  Imp  GPIBITBLT            (PMGPI.355)
 0000:00000000  Imp  GPICREATEBITMAP      (PMGPI.598)
 0000:00000000  Imp  GPICREATEPS          (PMGPI.369)
 0000:00000000  Imp  GPIDELETEBITMAP      (PMGPI.371)
 0000:00000000  Imp  GPIDESTROYPS         (PMGPI.379)
 0000:00000000  Imp  GPISETBITMAP         (PMGPI.506)
 0000:00000000  Imp  GPISETBITMAPBITS     (PMGPI.602)
 0000:00000000  Imp  RECV                 (so32dll.10)
 0000:00000000  Imp  REXXSTART            (REXX.1)
 0000:00000000  Imp  SEND                 (so32dll.13)
 0000:00000000  Imp  SOCKET               (so32dll.16)
 0000:00000000  Imp  SOCLOSE              (so32dll.17)
 0000:00000000  Imp  WINBEGINPAINT        (PMWIN.703)
 0000:00000000  Imp  WINCREATEMSGQUEUE    (PMWIN.716)
 0000:00000000  Imp  WINCREATESTDWINDOW   (PMWIN.908)
 0000:00000000  Imp  WINCREATEWINDOW      (PMWIN.909)
 0000:00000000  Imp  WINDEFWINDOWPROC     (PMWIN.911)
 0000:00000000  Imp  WINDESTROYMSGQUEUE   (PMWIN.726)
 0000:00000000  Imp  WINDESTROYWINDOW     (PMWIN.728)
 0000:00000000  Imp  WINDISPATCHMSG       (PMWIN.912)
 0000:00000000  Imp  WINENDPAINT          (PMWIN.738)
 0000:00000000  Imp  WINGETMSG            (PMWIN.915)
 0000:00000000  Imp  WININITIALIZE        (PMWIN.763)
 0000:00000000  Imp  WININVALIDATERECT    (PMWIN.765)
 0000:00000000  Imp  WINLOADSTRING        (PMWIN.781)
 0000:00000000  Imp  WINMESSAGEBOX        (PMWIN.789)
 0000:00000000  Imp  WINPOSTMSG           (PMWIN.919)
 0000:00000000  Imp  WINPOSTQUEUEMSG      (PMWIN.902)
 0000:00000000  Imp  WINQUERYSYSVALUE     (PMWIN.829)
 0000:00000000  Imp  WINREGISTERCLASS     (PMWIN.926)
 0000:00000000  Imp  WINSETACTIVEWINDOW   (PMWIN.851)
 0000:00000000  Imp  WINSETWINDOWPOS      (PMWIN.875)
 0000:00000000  Imp  WINSUBCLASSWINDOW    (PMWIN.929)
 0000:00000000  Imp  WINTERMINATE         (PMWIN.888)

  Address         Publics by Value

 0000:00000000  Imp  GPICREATEPS          (PMGPI.369)
 0000:00000000  Imp  GPISETBITMAP         (PMGPI.506)
 0000:00000000  Imp  WINENDPAINT          (PMWIN.738)
 0000:00000000  Imp  WINTERMINATE         (PMWIN.888)
 0000:00000000  Imp  WINBEGINPAINT        (PMWIN.703)
 0000:00000000  Imp  GPIDESTROYPS         (PMGPI.379)
 0000:00000000  Imp  WINLOADSTRING        (PMWIN.781)
 0000:00000000  Imp  WINMESSAGEBOX        (PMWIN.789)
 0000:00000000  Imp  WININITIALIZE        (PMWIN.763)
 0000:00000000  Imp  WINDISPATCHMSG       (PMWIN.912)
 0000:00000000  Imp  RECV                 (so32dll.10)
 0000:00000000  Imp  SEND                 (so32dll.13)
 0000:00000000  Imp  DOSSETPRIORITY       (DOSCALLS.236)
 0000:00000000  Imp  GPICREATEBITMAP      (PMGPI.598)
 0000:00000000  Imp  DOSCREATETHREAD      (DOSCALLS.311)
 0000:00000000  Imp  GPIDELETEBITMAP      (PMGPI.371)
 0000:00000000  Imp  SOCKET               (so32dll.16)
 0000:00000000  Imp  GPISETBITMAPBITS     (PMGPI.602)
 0000:00000000  Imp  WINCREATEWINDOW      (PMWIN.909)
 0000:00000000  Imp  WINREGISTERCLASS     (PMWIN.926)
 0000:00000000  Imp  WININVALIDATERECT    (PMWIN.765)
 0000:00000000  Imp  DOSSUSPENDTHREAD     (DOSCALLS.238)
 0000:00000000  Imp  WINPOSTQUEUEMSG      (PMWIN.902)
 0000:00000000  Imp  WINSETWINDOWPOS      (PMWIN.875)
 0000:00000000  Imp  WINDEFWINDOWPROC     (PMWIN.911)
 0000:00000000  Imp  WINCREATEMSGQUEUE    (PMWIN.716)
 0000:00000000  Imp  WINSUBCLASSWINDOW    (PMWIN.929)
 0000:00000000  Imp  WINDESTROYWINDOW     (PMWIN.728)
 0000:00000000  Imp  WINQUERYSYSVALUE     (PMWIN.829)
 0000:00000000  Imp  SOCLOSE              (so32dll.17)
 0000:00000000  Imp  WINCREATESTDWINDOW   (PMWIN.908)
 0000:00000000  Imp  WINSETACTIVEWINDOW   (PMWIN.851)
 0000:00000000  Imp  CONNECT              (so32dll.3)
 0000:00000000  Imp  DOSBEEP              (DOSCALLS.286)
 0000:00000000  Imp  DOSOPEN              (DOSCALLS.273)
 0000:00000000  Imp  DOSSLEEP             (DOSCALLS.229)
 0000:00000000  Imp  DOSEXIT              (DOSCALLS.234)
 0000:00000000  Imp  WINDESTROYMSGQUEUE   (PMWIN.726)
 0000:00000000  Imp  DOSCLOSE             (DOSCALLS.257)
 0000:00000000  Imp  DOSWRITE             (DOSCALLS.282)
 0000:00000000  Imp  GPIBITBLT            (PMGPI.355)
 0000:00000000  Imp  DEVOPENDC            (PMGPI.610)
 0000:00000000  Imp  WINGETMSG            (PMWIN.915)
 0000:00000000  Imp  REXXSTART            (REXX.1)
 0000:00000000  Imp  DOSFREEMEM           (DOSCALLS.304)
 0000:00000000  Imp  DEVCLOSEDC           (PMGPI.604)
 0000:00000000  Imp  WINPOSTMSG           (PMWIN.919)

Program entry point at 0001:00000CF0
